; Function Attrs: mustprogress nofree norecurse nosync nounwind willreturn memory(read, inaccessiblemem: none) uwtable
define dso_local noundef zeroext i1 @_ZNK14cmConfigureLog22IsAnyLogVersionEnabledERKSt6vectorImSaImEE(ptr noundef nonnull readonly align 8 captures(none) dereferenceable(584) %0, ptr noundef nonnull readonly align 8 captures(none) dereferenceable(24) %1) local_unnamed_addr #9 align 2 {
  %3 = load ptr, ptr %1, align 8, !tbaa !47
  %4 = getelementptr inbounds nuw i8, ptr %0, i64 32
  %5 = load ptr, ptr %4, align 8, !tbaa !47
  %6 = getelementptr inbounds nuw i8, ptr %1, i64 8
  %7 = load ptr, ptr %6, align 8, !tbaa !47
  %8 = getelementptr inbounds nuw i8, ptr %0, i64 40
  %9 = load ptr, ptr %8, align 8
  %10 = icmp ne ptr %3, %7
  %11 = icmp ne ptr %5, %9
  %or.cond15 = select i1 %10, i1 %11, i1 false
  br i1 %or.cond15, label %.lr.ph, label %.critedge

.lr.ph:                                           ; preds = %2, %21
  %.sroa.09.017 = phi ptr [ %.sroa.09.1, %21 ], [ %3, %2 ]
  %.sroa.05.016 = phi ptr [ %.sroa.05.1, %21 ], [ %5, %2 ]
  %12 = load i64, ptr %.sroa.09.017, align 8, !tbaa !48
  %13 = load i64, ptr %.sroa.05.016, align 8, !tbaa !48
  %14 = icmp ult i64 %12, %13
  br i1 %14, label %15, label %17

15:                                               ; preds = %.lr.ph
  %16 = getelementptr inbounds nuw i8, ptr %.sroa.09.017, i64 8
  br label %21

17:                                               ; preds = %.lr.ph
  %18 = icmp ult i64 %13, %12
  br i1 %18, label %19, label %.critedge

19:                                               ; preds = %17
  %20 = getelementptr inbounds nuw i8, ptr %.sroa.05.016, i64 8
  br label %21

21:                                               ; preds = %19, %15
  %.sroa.05.1 = phi ptr [ %.sroa.05.016, %15 ], [ %20, %19 ]
  %.sroa.09.1 = phi ptr [ %16, %15 ], [ %.sroa.09.017, %19 ]
  %22 = icmp ne ptr %.sroa.09.1, %7
  %23 = icmp ne ptr %.sroa.05.1, %9
  %or.cond = select i1 %22, i1 %23, i1 false
  br i1 %or.cond, label %.lr.ph, label %.critedge, !llvm.loop !56

.critedge:                                        ; preds = %17, %21, %2
  %or.cond.lcssa = phi i1 [ false, %2 ], [ false, %21 ], [ true, %17 ]
  ret i1 %or.cond.lcssa
}